(iSolution
Solution
p0
(dp1
S'bonus'
p2
I25
sS'cars'
p3
(lp4
(iCar
Car
p5
(dp6
S'step_available'
p7
I24723
sS'position'
p8
(lp9
I648
aI412
asS'score'
p10
I0
sS'rides'
p11
(lp12
(iRide
Ride
p13
(dp14
S'time_final'
p15
I10135
sS'time_init'
p16
I9134
sS'position_final'
p17
(lp18
I10
aI783
asS'id'
p19
I281
sS'position_init'
p20
(lp21
I20
aI131
asba(iRide
Ride
p22
(dp23
g15
I17742
sg16
I17523
sg17
(lp24
I756
aI220
asg19
I199
sg20
(lp25
I681
aI206
asba(iRide
Ride
p26
(dp27
g15
I24952
sg16
I24453
sg17
g9
sg19
I130
sg20
(lp28
I379
aI411
asbasba(iCar
Car
p29
(dp30
g7
I17712
sg8
(lp31
I48
aI358
asg10
I0
sg11
(lp32
(iRide
Ride
p33
(dp34
g15
I9010
sg16
I8766
sg17
(lp35
I743
aI528
asg19
I166
sg20
(lp36
I795
aI571
asba(iRide
Ride
p37
(dp38
g15
I18899
sg16
I16842
sg17
g31
sg19
I16
sg20
(lp39
I493
aI783
asbasba(iCar
Car
p40
(dp41
g7
I17717
sg8
(lp42
I741
aI819
asg10
I0
sg11
(lp43
(iRide
Ride
p44
(dp45
g15
I9741
sg16
I8084
sg17
(lp46
I223
aI589
asg19
I21
sg20
(lp47
I498
aI128
asba(iRide
Ride
p48
(dp49
g15
I19208
sg16
I16795
sg17
g42
sg19
I98
sg20
(lp50
I471
aI167
asbasba(iCar
Car
p51
(dp52
g7
I17913
sg8
(lp53
I781
aI455
asg10
I0
sg11
(lp54
(iRide
Ride
p55
(dp56
g15
I9198
sg16
I8629
sg17
(lp57
I427
aI476
asg19
I232
sg20
(lp58
I684
aI642
asba(iRide
Ride
p59
(dp60
g15
I19919
sg16
I17031
sg17
g53
sg19
I205
sg20
(lp61
I261
aI817
asbasba(iCar
Car
p62
(dp63
g7
I18062
sg8
(lp64
I126
aI571
asg10
I0
sg11
(lp65
(iRide
Ride
p66
(dp67
g15
I10839
sg16
I8788
sg17
(lp68
I72
aI250
asg19
I96
sg20
(lp69
I415
aI844
asba(iRide
Ride
p70
(dp71
g15
I18095
sg16
I17390
sg17
g64
sg19
I35
sg20
(lp72
I277
aI50
asbasba(iCar
Car
p73
(dp74
g7
I18070
sg8
(lp75
I559
aI458
asg10
I0
sg11
(lp76
(iRide
Ride
p77
(dp78
g15
I1479
sg16
I1222
sg17
(lp79
I523
aI322
asg19
I34
sg20
(lp80
I582
aI461
asba(iRide
Ride
p81
(dp82
g15
I11604
sg16
I9443
sg17
(lp83
I187
aI802
asg19
I174
sg20
(lp84
I362
aI356
asba(iRide
Ride
p85
(dp86
g15
I18276
sg16
I17768
sg17
g75
sg19
I255
sg20
(lp87
I345
aI370
asbasba(iCar
Car
p88
(dp89
g7
I18183
sg8
(lp90
I490
aI315
asg10
I0
sg11
(lp91
(iRide
Ride
p92
(dp93
g15
I1244
sg16
I228
sg17
(lp94
I42
aI160
asg19
I167
sg20
(lp95
I502
aI138
asba(iRide
Ride
p96
(dp97
g15
I9864
sg16
I9309
sg17
(lp98
I26
aI616
asg19
I32
sg20
(lp99
I358
aI834
asba(iRide
Ride
p100
(dp101
g15
I18263
sg16
I17725
sg17
g90
sg19
I20
sg20
(lp102
I547
aI716
asbasba(iCar
Car
p103
(dp104
g7
I18209
sg8
(lp105
I567
aI428
asg10
I0
sg11
(lp106
(iRide
Ride
p107
(dp108
g15
I2131
sg16
I1262
sg17
(lp109
I46
aI27
asg19
I108
sg20
(lp110
I96
aI421
asba(iRide
Ride
p111
(dp112
g15
I10980
sg16
I9773
sg17
(lp113
I462
aI484
asg19
I29
sg20
(lp114
I650
aI286
asba(iRide
Ride
p115
(dp116
g15
I18318
sg16
I17801
sg17
g105
sg19
I238
sg20
(lp117
I323
aI264
asbasba(iCar
Car
p118
(dp119
g7
I18251
sg8
(lp120
I764
aI227
asg10
I0
sg11
(lp121
(iRide
Ride
p122
(dp123
g15
I1390
sg16
I830
sg17
(lp124
I737
aI6
asg19
I168
sg20
(lp125
I581
aI167
asba(iRide
Ride
p126
(dp127
g15
I9991
sg16
I9314
sg17
(lp128
I207
aI429
asg19
I230
sg20
(lp129
I78
aI559
asba(iRide
Ride
p130
(dp131
g15
I18466
sg16
I17238
sg17
g120
sg19
I181
sg20
(lp132
I434
aI910
asbasba(iCar
Car
p133
(dp134
g7
I18267
sg8
(lp135
I625
aI28
asg10
I0
sg11
(lp136
(iRide
Ride
p137
(dp138
g15
I10642
sg16
I8835
sg17
(lp139
I345
aI598
asg19
I39
sg20
(lp140
I557
aI123
asba(iRide
Ride
p141
(dp142
g15
I20620
sg16
I17210
sg17
g135
sg19
I112
sg20
(lp143
I255
aI715
asbasba(iCar
Car
p144
(dp145
g7
I18287
sg8
(lp146
I140
aI795
asg10
I0
sg11
(lp147
(iRide
Ride
p148
(dp149
g15
I10227
sg16
I9045
sg17
(lp150
I414
aI473
asg19
I277
sg20
(lp151
I597
aI94
asba(iRide
Ride
p152
(dp153
g15
I18358
sg16
I17379
sg17
g146
sg19
I219
sg20
(lp154
I677
aI424
asbasba(iCar
Car
p155
(dp156
g7
I18416
sg8
(lp157
I390
aI535
asg10
I0
sg11
(lp158
(iRide
Ride
p159
(dp160
g15
I2286
sg16
I1566
sg17
(lp161
I111
aI568
asg19
I184
sg20
(lp162
I131
aI923
asba(iRide
Ride
p163
(dp164
g15
I10633
sg16
I10469
sg17
(lp165
I393
aI237
asg19
I172
sg20
(lp166
I468
aI170
asba(iRide
Ride
p167
(dp168
g15
I18766
sg16
I18038
sg17
g157
sg19
I31
sg20
(lp169
I637
aI404
asbasba(iCar
Car
p170
(dp171
g7
I18652
sg8
(lp172
I600
aI283
asg10
I0
sg11
(lp173
(iRide
Ride
p174
(dp175
g15
I1958
sg16
I1663
sg17
(lp176
I55
aI586
asg19
I99
sg20
(lp177
I61
aI690
asba(iRide
Ride
p178
(dp179
g15
I10984
sg16
I10030
sg17
(lp180
I775
aI980
asg19
I284
sg20
(lp181
I250
aI700
asba(iRide
Ride
p182
(dp183
g15
I18995
sg16
I18134
sg17
g172
sg19
I250
sg20
(lp184
I182
aI183
asbasba(iCar
Car
p185
(dp186
g7
I18683
sg8
(lp187
I373
aI584
asg10
I0
sg11
(lp188
(iRide
Ride
p189
(dp190
g15
I3620
sg16
I244
sg17
(lp191
I296
aI955
asg19
I0
sg20
(lp192
I395
aI43
asba(iRide
Ride
p193
(dp194
g15
I13086
sg16
I9634
sg17
(lp195
I187
aI311
asg19
I282
sg20
(lp196
I695
aI831
asba(iRide
Ride
p197
(dp198
g15
I19897
sg16
I18068
sg17
g187
sg19
I266
sg20
(lp199
I125
aI217
asbasba(iCar
Car
p200
(dp201
g7
I18695
sg8
(lp202
I610
aI72
asg10
I0
sg11
(lp203
(iRide
Ride
p204
(dp205
g15
I2172
sg16
I1111
sg17
(lp206
I684
aI506
asg19
I54
sg20
(lp207
I280
aI980
asba(iRide
Ride
p208
(dp209
g15
I12574
sg16
I10541
sg17
(lp210
I210
aI132
asg19
I204
sg20
(lp211
I631
aI440
asba(iRide
Ride
p212
(dp213
g15
I18943
sg16
I18433
sg17
g202
sg19
I51
sg20
(lp214
I552
aI276
asbasba(iCar
Car
p215
(dp216
g7
I18710
sg8
(lp217
I714
aI387
asg10
I0
sg11
(lp218
(iRide
Ride
p219
(dp220
g15
I3229
sg16
I2123
sg17
(lp221
I411
aI951
asg19
I88
sg20
(lp222
I661
aI793
asba(iRide
Ride
p223
(dp224
g15
I11268
sg16
I11197
sg17
(lp225
I367
aI274
asg19
I222
sg20
(lp226
I378
aI301
asba(iRide
Ride
p227
(dp228
g15
I18879
sg16
I18373
sg17
g217
sg19
I264
sg20
(lp229
I757
aI681
asbasba(iCar
Car
p230
(dp231
g7
I18736
sg8
(lp232
I235
aI406
asg10
I0
sg11
(lp233
(iRide
Ride
p234
(dp235
g15
I2487
sg16
I1456
sg17
(lp236
I663
aI974
asg19
I41
sg20
(lp237
I673
aI589
asba(iRide
Ride
p238
(dp239
g15
I11611
sg16
I10197
sg17
(lp240
I454
aI379
asg19
I28
sg20
(lp241
I550
aI693
asba(iRide
Ride
p242
(dp243
g15
I20618
sg16
I17966
sg17
g232
sg19
I223
sg20
(lp244
I584
aI827
asbasba(iCar
Car
p245
(dp246
g7
I18816
sg8
(lp247
I201
aI251
asg10
I0
sg11
(lp248
(iRide
Ride
p249
(dp250
g15
I2379
sg16
I1998
sg17
(lp251
I332
aI323
asg19
I110
sg20
(lp252
I489
aI518
asba(iRide
Ride
p253
(dp254
g15
I12406
sg16
I10996
sg17
(lp255
I494
aI860
asg19
I239
sg20
(lp256
I92
aI949
asba(iRide
Ride
p257
(dp258
g15
I18915
sg16
I18699
sg17
g247
sg19
I115
sg20
(lp259
I266
aI303
asbasba(iCar
Car
p260
(dp261
g7
I18839
sg8
(lp262
I673
aI430
asg10
I0
sg11
(lp263
(iRide
Ride
p264
(dp265
g15
I2387
sg16
I330
sg17
(lp266
I107
aI920
asg19
I180
sg20
(lp267
I558
aI292
asba(iRide
Ride
p268
(dp269
g15
I12129
sg16
I10403
sg17
(lp270
I298
aI4
asg19
I241
sg20
(lp271
I367
aI597
asba(iRide
Ride
p272
(dp273
g15
I20212
sg16
I18289
sg17
g262
sg19
I78
sg20
(lp274
I154
aI461
asbasba(iCar
Car
p275
(dp276
g7
I18857
sg8
(lp277
I512
aI992
asg10
I0
sg11
(lp278
(iRide
Ride
p279
(dp280
g15
I2595
sg16
I1613
sg17
(lp281
I157
aI112
asg19
I164
sg20
(lp282
I148
aI585
asba(iRide
Ride
p283
(dp284
g15
I11177
sg16
I10505
sg17
(lp285
I283
aI914
asg19
I40
sg20
(lp286
I456
aI621
asba(iRide
Ride
p287
(dp288
g15
I19244
sg16
I18217
sg17
g277
sg19
I292
sg20
(lp289
I635
aI475
asbasba(iCar
Car
p290
(dp291
g7
I18903
sg8
(lp292
I662
aI736
asg10
I0
sg11
(lp293
(iRide
Ride
p294
(dp295
g15
I3756
sg16
I721
sg17
(lp296
I346
aI877
asg19
I296
sg20
(lp297
I3
aI203
asba(iRide
Ride
p298
(dp299
g15
I12366
sg16
I9780
sg17
(lp300
I709
aI629
asg19
I214
sg20
(lp301
I528
aI3
asba(iRide
Ride
p302
(dp303
g15
I21172
sg16
I17910
sg17
g292
sg19
I196
sg20
(lp304
I34
aI371
asbasba(iCar
Car
p305
(dp306
g7
I18944
sg8
(lp307
I33
aI768
asg10
I0
sg11
(lp308
(iRide
Ride
p309
(dp310
g15
I2365
sg16
I1409
sg17
(lp311
I407
aI878
asg19
I275
sg20
(lp312
I586
aI708
asba(iRide
Ride
p313
(dp314
g15
I10834
sg16
I9979
sg17
(lp315
I229
aI159
asg19
I128
sg20
(lp316
I319
aI456
asba(iRide
Ride
p317
(dp318
g15
I20391
sg16
I17861
sg17
g307
sg19
I265
sg20
(lp319
I495
aI147
asbasba(iCar
Car
p320
(dp321
g7
I19071
sg8
(lp322
I264
aI678
asg10
I0
sg11
(lp323
(iRide
Ride
p324
(dp325
g15
I3179
sg16
I2744
sg17
(lp326
I180
aI701
asg19
I8
sg20
(lp327
I508
aI681
asba(iRide
Ride
p328
(dp329
g15
I11642
sg16
I11527
sg17
(lp330
I694
aI52
asg19
I122
sg20
(lp331
I601
aI45
asba(iRide
Ride
p332
(dp333
g15
I19808
sg16
I18764
sg17
g322
sg19
I55
sg20
(lp334
I188
aI447
asbasba(iCar
Car
p335
(dp336
g7
I19330
sg8
(lp337
I50
aI758
asg10
I0
sg11
(lp338
(iRide
Ride
p339
(dp340
g15
I2340
sg16
I208
sg17
(lp341
I504
aI995
asg19
I216
sg20
(lp342
I666
aI188
asba(iRide
Ride
p343
(dp344
g15
I11341
sg16
I10104
sg17
(lp345
I139
aI701
asg19
I102
sg20
(lp346
I703
aI709
asba(iRide
Ride
p347
(dp348
g15
I20470
sg16
I18105
sg17
g337
sg19
I242
sg20
(lp349
I544
aI27
asbasba(iCar
Car
p350
(dp351
g7
I19357
sg8
(lp352
I445
aI462
asg10
I0
sg11
(lp353
(iRide
Ride
p354
(dp355
g15
I3577
sg16
I3412
sg17
(lp356
I252
aI561
asg19
I286
sg20
(lp357
I269
aI492
asba(iRide
Ride
p358
(dp359
g15
I12878
sg16
I11603
sg17
(lp360
I389
aI839
asg19
I157
sg20
(lp361
I54
aI709
asba(iRide
Ride
p362
(dp363
g15
I20119
sg16
I18980
sg17
g352
sg19
I182
sg20
(lp364
I194
aI336
asbasba(iCar
Car
p365
(dp366
g7
I19360
sg8
(lp367
I630
aI71
asg10
I0
sg11
(lp368
(iRide
Ride
p369
(dp370
g15
I2410
sg16
I1451
sg17
(lp371
I478
aI635
asg19
I87
sg20
(lp372
I198
aI840
asba(iRide
Ride
p373
(dp374
g15
I12122
sg16
I10418
sg17
(lp375
I799
aI894
asg19
I244
sg20
(lp376
I657
aI187
asba(iRide
Ride
p377
(dp378
g15
I20760
sg16
I18380
sg17
g367
sg19
I106
sg20
(lp379
I189
aI610
asbasba(iCar
Car
p380
(dp381
g7
I19367
sg8
(lp382
I770
aI992
asg10
I0
sg11
(lp383
(iRide
Ride
p384
(dp385
g15
I4194
sg16
I1349
sg17
(lp386
I774
aI428
asg19
I85
sg20
(lp387
I176
aI699
asba(iRide
Ride
p388
(dp389
g15
I13072
sg16
I10777
sg17
(lp390
I378
aI665
asg19
I146
sg20
(lp391
I481
aI80
asba(iRide
Ride
p392
(dp393
g15
I19419
sg16
I18656
sg17
g382
sg19
I289
sg20
(lp394
I768
aI283
asbasba(iCar
Car
p395
(dp396
g7
I19553
sg8
(lp397
I598
aI46
asg10
I0
sg11
(lp398
(iRide
Ride
p399
(dp400
g15
I4080
sg16
I1771
sg17
(lp401
I106
aI660
asg19
I212
sg20
(lp402
I764
aI965
asba(iRide
Ride
p403
(dp404
g15
I12106
sg16
I11222
sg17
(lp405
I422
aI394
asg19
I202
sg20
(lp406
I152
aI641
asba(iRide
Ride
p407
(dp408
g15
I21212
sg16
I18829
sg17
g397
sg19
I155
sg20
(lp409
I638
aI730
asbasba(iCar
Car
p410
(dp411
g7
I19649
sg8
(lp412
I111
aI567
asg10
I0
sg11
(lp413
(iRide
Ride
p414
(dp415
g15
I2642
sg16
I632
sg17
(lp416
I363
aI285
asg19
I116
sg20
(lp417
I491
aI915
asba(iRide
Ride
p418
(dp419
g15
I12301
sg16
I10652
sg17
(lp420
I689
aI891
asg19
I217
sg20
(lp421
I517
aI426
asba(iRide
Ride
p422
(dp423
g15
I21011
sg16
I18517
sg17
g412
sg19
I12
sg20
(lp424
I761
aI85
asbasba(iCar
Car
p425
(dp426
g7
I19715
sg8
(lp427
I394
aI416
asg10
I0
sg11
(lp428
(iRide
Ride
p429
(dp430
g15
I3629
sg16
I3059
sg17
(lp431
I668
aI304
asg19
I134
sg20
(lp432
I750
aI114
asba(iRide
Ride
p433
(dp434
g15
I14039
sg16
I11562
sg17
(lp435
I666
aI938
asg19
I50
sg20
(lp436
I118
aI755
asba(iRide
Ride
p437
(dp438
g15
I20364
sg16
I19327
sg17
g427
sg19
I192
sg20
(lp439
I385
aI37
asbasba(iCar
Car
p440
(dp441
g7
I19721
sg8
(lp442
I542
aI750
asg10
I0
sg11
(lp443
(iRide
Ride
p444
(dp445
g15
I3375
sg16
I2507
sg17
(lp446
I83
aI201
asg19
I72
sg20
(lp447
I185
aI523
asba(iRide
Ride
p448
(dp449
g15
I12322
sg16
I11243
sg17
(lp450
I201
aI149
asg19
I185
sg20
(lp451
I443
aI921
asba(iRide
Ride
p452
(dp453
g15
I20394
sg16
I19184
sg17
g442
sg19
I145
sg20
(lp454
I64
aI691
asbasba(iCar
Car
p455
(dp456
g7
I19762
sg8
(lp457
I392
aI959
asg10
I0
sg11
(lp458
(iRide
Ride
p459
(dp460
g15
I3381
sg16
I2744
sg17
(lp461
I141
aI419
asg19
I4
sg20
(lp462
I314
aI563
asba(iRide
Ride
p463
(dp464
g15
I11771
sg16
I11440
sg17
(lp465
I676
aI208
asg19
I64
sg20
(lp466
I556
aI242
asba(iRide
Ride
p467
(dp468
g15
I20533
sg16
I18758
sg17
g457
sg19
I152
sg20
(lp469
I480
aI43
asbasba(iCar
Car
p470
(dp471
g7
I19806
sg8
(lp472
I16
aI861
asg10
I0
sg11
(lp473
(iRide
Ride
p474
(dp475
g15
I3562
sg16
I3467
sg17
(lp476
I33
aI713
asg19
I299
sg20
(lp477
I71
aI674
asba(iRide
Ride
p478
(dp479
g15
I12251
sg16
I11746
sg17
(lp480
I452
aI191
asg19
I254
sg20
(lp481
I481
aI487
asba(iRide
Ride
p482
(dp483
g15
I19938
sg16
I19026
sg17
g472
sg19
I67
sg20
(lp484
I248
aI313
asbasba(iCar
Car
p485
(dp486
g7
I19885
sg8
(lp487
I750
aI449
asg10
I0
sg11
(lp488
(iRide
Ride
p489
(dp490
g15
I5259
sg16
I2985
sg17
(lp491
I672
aI404
asg19
I148
sg20
(lp492
I72
aI536
asba(iRide
Ride
p493
(dp494
g15
I13120
sg16
I12176
sg17
(lp495
I750
aI436
asg19
I158
sg20
(lp496
I287
aI484
asba(iRide
Ride
p497
(dp498
g15
I20195
sg16
I19730
sg17
g487
sg19
I280
sg20
(lp499
I774
aI580
asbasba(iCar
Car
p500
(dp501
g7
I19907
sg8
(lp502
I732
aI939
asg10
I0
sg11
(lp503
(iRide
Ride
p504
(dp505
g15
I3621
sg16
I2477
sg17
(lp506
I189
aI909
asg19
I80
sg20
(lp507
I530
aI416
asba(iRide
Ride
p508
(dp509
g15
I13248
sg16
I11556
sg17
(lp510
I155
aI726
asg19
I82
sg20
(lp511
I258
aI224
asba(iRide
Ride
p512
(dp513
g15
I20634
sg16
I19037
sg17
g502
sg19
I104
sg20
(lp514
I654
aI147
asbasba(iCar
Car
p515
(dp516
g7
I19977
sg8
(lp517
I560
aI74
asg10
I0
sg11
(lp518
(iRide
Ride
p519
(dp520
g15
I5812
sg16
I3311
sg17
(lp521
I521
aI212
asg19
I259
sg20
(lp522
I70
aI960
asba(iRide
Ride
p523
(dp524
g15
I13491
sg16
I12646
sg17
(lp525
I387
aI12
asg19
I3
sg20
(lp526
I210
aI150
asba(iRide
Ride
p527
(dp528
g15
I20019
sg16
I19931
sg17
g517
sg19
I66
sg20
(lp529
I582
aI50
asbasba(iCar
Car
p530
(dp531
g7
I20034
sg8
(lp532
I681
aI811
asg10
I0
sg11
(lp533
(iRide
Ride
p534
(dp535
g15
I3712
sg16
I2349
sg17
(lp536
I29
aI56
asg19
I103
sg20
(lp537
I247
aI549
asba(iRide
Ride
p538
(dp539
g15
I12202
sg16
I11368
sg17
(lp540
I197
aI802
asg19
I14
sg20
(lp541
I31
aI325
asba(iRide
Ride
p542
(dp543
g15
I21243
sg16
I18975
sg17
g532
sg19
I59
sg20
(lp544
I216
aI217
asbasba(iCar
Car
p545
(dp546
g7
I20078
sg8
(lp547
I53
aI218
asg10
I0
sg11
(lp548
(iRide
Ride
p549
(dp550
g15
I4215
sg16
I1639
sg17
(lp551
I658
aI454
asg19
I249
sg20
(lp552
I227
aI816
asba(iRide
Ride
p553
(dp554
g15
I13484
sg16
I11013
sg17
(lp555
I128
aI970
asg19
I121
sg20
(lp556
I319
aI195
asba(iRide
Ride
p557
(dp558
g15
I21150
sg16
I18963
sg17
g547
sg19
I141
sg20
(lp559
I635
aI751
asbasba(iCar
Car
p560
(dp561
g7
I20141
sg8
(lp562
I565
aI611
asg10
I0
sg11
(lp563
(iRide
Ride
p564
(dp565
g15
I4966
sg16
I2956
sg17
(lp566
I772
aI430
asg19
I294
sg20
(lp567
I91
aI482
asba(iRide
Ride
p568
(dp569
g15
I13489
sg16
I11932
sg17
(lp570
I125
aI269
asg19
I295
sg20
(lp571
I561
aI555
asba(iRide
Ride
p572
(dp573
g15
I21028
sg16
I19681
sg17
g562
sg19
I176
sg20
(lp574
I110
aI606
asbasba(iCar
Car
p575
(dp576
g7
I20177
sg8
(lp577
I138
aI28
asg10
I0
sg11
(lp578
(iRide
Ride
p579
(dp580
g15
I3905
sg16
I3766
sg17
(lp581
I244
aI256
asg19
I24
sg20
(lp582
I219
aI277
asba(iRide
Ride
p583
(dp584
g15
I13006
sg16
I12206
sg17
(lp585
I399
aI117
asg19
I26
sg20
(lp586
I621
aI39
asba(iRide
Ride
p587
(dp588
g15
I20431
sg16
I19493
sg17
g577
sg19
I142
sg20
(lp589
I238
aI612
asbasba(iCar
Car
p590
(dp591
g7
I20207
sg8
(lp592
I602
aI487
asg10
I0
sg11
(lp593
(iRide
Ride
p594
(dp595
g15
I5036
sg16
I4056
sg17
(lp596
I470
aI739
asg19
I13
sg20
(lp597
I126
aI185
asba(iRide
Ride
p598
(dp599
g15
I13612
sg16
I13004
sg17
(lp600
I593
aI202
asg19
I191
sg20
(lp601
I524
aI323
asba(iRide
Ride
p602
(dp603
g15
I20301
sg16
I20154
sg17
g592
sg19
I17
sg20
(lp604
I648
aI494
asbasba(iCar
Car
p605
(dp606
g7
I20208
sg8
(lp607
I442
aI955
asg10
I0
sg11
(lp608
(iRide
Ride
p609
(dp610
g15
I5074
sg16
I3227
sg17
(lp611
I379
aI158
asg19
I162
sg20
(lp612
I784
aI431
asba(iRide
Ride
p613
(dp614
g15
I12833
sg16
I12386
sg17
(lp615
I412
aI325
asg19
I268
sg20
(lp616
I557
aI342
asba(iRide
Ride
p617
(dp618
g15
I21544
sg16
I19618
sg17
g607
sg19
I71
sg20
(lp619
I235
aI572
asbasba(iCar
Car
p620
(dp621
g7
I20291
sg8
(lp622
I634
aI260
asg10
I0
sg11
(lp623
(iRide
Ride
p624
(dp625
g15
I5285
sg16
I3594
sg17
(lp626
I81
aI89
asg19
I203
sg20
(lp627
I394
aI514
asba(iRide
Ride
p628
(dp629
g15
I13716
sg16
I12476
sg17
(lp630
I657
aI151
asg19
I209
sg20
(lp631
I47
aI173
asba(iRide
Ride
p632
(dp633
g15
I20380
sg16
I20096
sg17
g622
sg19
I100
sg20
(lp634
I449
aI270
asbasba(iCar
Car
p635
(dp636
g7
I20539
sg8
(lp637
I212
aI615
asg10
I0
sg11
(lp638
(iRide
Ride
p639
(dp640
g15
I4911
sg16
I3866
sg17
(lp641
I653
aI427
asg19
I161
sg20
(lp642
I176
aI19
asba(iRide
Ride
p643
(dp644
g15
I12908
sg16
I12706
sg17
(lp645
I264
aI566
asg19
I86
sg20
(lp646
I365
aI600
asba(iRide
Ride
p647
(dp648
g15
I21624
sg16
I19915
sg17
g637
sg19
I228
sg20
(lp649
I200
aI3
asbasba(iCar
Car
p650
(dp651
g7
I20565
sg8
(lp652
I6
aI829
asg10
I0
sg11
(lp653
(iRide
Ride
p654
(dp655
g15
I4668
sg16
I2313
sg17
(lp656
I524
aI997
asg19
I75
sg20
(lp657
I67
aI382
asba(iRide
Ride
p658
(dp659
g15
I13755
sg16
I11576
sg17
(lp660
I689
aI968
asg19
I68
sg20
(lp661
I188
aI405
asba(iRide
Ride
p662
(dp663
g15
I20630
sg16
I19651
sg17
g652
sg19
I43
sg20
(lp664
I400
aI309
asbasba(iCar
Car
p665
(dp666
g7
I20602
sg8
(lp667
I177
aI833
asg10
I0
sg11
(lp668
(iRide
Ride
p669
(dp670
g15
I4340
sg16
I3434
sg17
(lp671
I376
aI617
asg19
I246
sg20
(lp672
I268
aI768
asba(iRide
Ride
p673
(dp674
g15
I14412
sg16
I12027
sg17
(lp675
I638
aI250
asg19
I111
sg20
(lp676
I176
aI758
asba(iRide
Ride
p677
(dp678
g15
I20869
sg16
I20010
sg17
g667
sg19
I252
sg20
(lp679
I171
aI247
asbasba(iCar
Car
p680
(dp681
g7
I20613
sg8
(lp682
I235
aI3
asg10
I0
sg11
(lp683
(iRide
Ride
p684
(dp685
g15
I5260
sg16
I3777
sg17
(lp686
I333
aI935
asg19
I133
sg20
(lp687
I103
aI553
asba(iRide
Ride
p688
(dp689
g15
I13647
sg16
I12562
sg17
(lp690
I793
aI337
asg19
I236
sg20
(lp691
I426
aI564
asba(iRide
Ride
p692
(dp693
g15
I21294
sg16
I20099
sg17
g682
sg19
I215
sg20
(lp694
I77
aI359
asbasba(iCar
Car
p695
(dp696
g7
I20619
sg8
(lp697
I444
aI685
asg10
I0
sg11
(lp698
(iRide
Ride
p699
(dp700
g15
I3698
sg16
I2806
sg17
(lp701
I154
aI449
asg19
I7
sg20
(lp702
I219
aI215
asba(iRide
Ride
p703
(dp704
g15
I14794
sg16
I11544
sg17
(lp705
I347
aI44
asg19
I271
sg20
(lp706
I715
aI879
asba(iRide
Ride
p707
(dp708
g15
I22222
sg16
I19799
sg17
g697
sg19
I154
sg20
(lp709
I625
aI46
asbasba(iCar
Car
p710
(dp711
g7
I20756
sg8
(lp712
I154
aI616
asg10
I0
sg11
(lp713
(iRide
Ride
p714
(dp715
g15
I4433
sg16
I3816
sg17
(lp716
I470
aI606
asg19
I210
sg20
(lp717
I73
aI600
asba(iRide
Ride
p718
(dp719
g15
I14107
sg16
I12475
sg17
(lp720
I539
aI684
asg19
I207
sg20
(lp721
I689
aI105
asba(iRide
Ride
p722
(dp723
g15
I21068
sg16
I20196
sg17
g712
sg19
I297
sg20
(lp724
I606
aI724
asbasba(iCar
Car
p725
(dp726
g7
I20788
sg8
(lp727
I499
aI257
asg10
I0
sg11
(lp728
(iRide
Ride
p729
(dp730
g15
I4759
sg16
I4380
sg17
(lp731
I328
aI492
asg19
I220
sg20
(lp732
I317
aI840
asba(iRide
Ride
p733
(dp734
g15
I14289
sg16
I12669
sg17
(lp735
I534
aI169
asg19
I27
sg20
(lp736
I62
aI406
asba(iRide
Ride
p737
(dp738
g15
I21549
sg16
I20394
sg17
g727
sg19
I30
sg20
(lp739
I275
aI87
asbasba(iCar
Car
p740
(dp741
g7
I20796
sg8
(lp742
I449
aI146
asg10
I0
sg11
(lp743
(iRide
Ride
p744
(dp745
g15
I4966
sg16
I3385
sg17
(lp746
I257
aI253
asg19
I159
sg20
(lp747
I613
aI505
asba(iRide
Ride
p748
(dp749
g15
I13461
sg16
I12443
sg17
(lp750
I705
aI485
asg19
I243
sg20
(lp751
I187
aI940
asba(iRide
Ride
p752
(dp753
g15
I21364
sg16
I20416
sg17
g742
sg19
I120
sg20
(lp754
I720
aI37
asbasba(iCar
Car
p755
(dp756
g7
I21195
sg8
(lp757
I46
aI910
asg10
I0
sg11
(lp758
(iRide
Ride
p759
(dp760
g15
I6414
sg16
I4124
sg17
(lp761
I599
aI956
asg19
I260
sg20
(lp762
I517
aI208
asba(iRide
Ride
p763
(dp764
g15
I13727
sg16
I12980
sg17
(lp765
I626
aI680
asg19
I253
sg20
(lp766
I461
aI731
asba(iRide
Ride
p767
(dp768
g15
I21514
sg16
I20167
sg17
g757
sg19
I288
sg20
(lp769
I432
aI268
asbasba(iCar
Car
p770
(dp771
g7
I21305
sg8
(lp772
I563
aI43
asg10
I0
sg11
(lp773
(iRide
Ride
p774
(dp775
g15
I6027
sg16
I4323
sg17
(lp776
I182
aI287
asg19
I136
sg20
(lp777
I423
aI12
asba(iRide
Ride
p778
(dp779
g15
I13809
sg16
I12736
sg17
(lp780
I142
aI568
asg19
I258
sg20
(lp781
I766
aI849
asba(iRide
Ride
p782
(dp783
g15
I21378
sg16
I20940
sg17
g772
sg19
I251
sg20
(lp784
I534
aI379
asbasba(iCar
Car
p785
(dp786
g7
I21362
sg8
(lp787
I159
aI839
asg10
I0
sg11
(lp788
(iRide
Ride
p789
(dp790
g15
I5654
sg16
I3941
sg17
(lp791
I507
aI792
asg19
I127
sg20
(lp792
I243
aI102
asba(iRide
Ride
p793
(dp794
g15
I15278
sg16
I12952
sg17
(lp795
I640
aI37
asg19
I89
sg20
(lp796
I686
aI808
asba(iRide
Ride
p797
(dp798
g15
I21389
sg16
I21238
sg17
g787
sg19
I231
sg20
(lp799
I73
aI801
asbasba(iCar
Car
p800
(dp801
g7
I21503
sg8
(lp802
I547
aI269
asg10
I0
sg11
(lp803
(iRide
Ride
p804
(dp805
g15
I4698
sg16
I3861
sg17
(lp806
I533
aI747
asg19
I62
sg20
(lp807
I85
aI547
asba(iRide
Ride
p808
(dp809
g15
I14630
sg16
I12617
sg17
(lp810
I686
aI121
asg19
I11
sg20
(lp811
I790
aI935
asba(iRide
Ride
p812
(dp813
g15
I22043
sg16
I20606
sg17
g802
sg19
I126
sg20
(lp814
I203
aI822
asbasba(iCar
Car
p815
(dp816
g7
I21589
sg8
(lp817
I256
aI845
asg10
I0
sg11
(lp818
(iRide
Ride
p819
(dp820
g15
I5727
sg16
I4790
sg17
(lp821
I207
aI732
asg19
I58
sg20
(lp822
I23
aI441
asba(iRide
Ride
p823
(dp824
g15
I14788
sg16
I13169
sg17
(lp825
I41
aI936
asg19
I163
sg20
(lp826
I74
aI501
asba(iRide
Ride
p827
(dp828
g15
I23566
sg16
I20747
sg17
g817
sg19
I206
sg20
(lp829
I155
aI104
asbasba(iCar
Car
p830
(dp831
g7
I21627
sg8
(lp832
I300
aI523
asg10
I0
sg11
(lp833
(iRide
Ride
p834
(dp835
g15
I5248
sg16
I4551
sg17
(lp836
I519
aI899
asg19
I92
sg20
(lp837
I482
aI285
asba(iRide
Ride
p838
(dp839
g15
I14513
sg16
I13163
sg17
(lp840
I382
aI460
asg19
I61
sg20
(lp841
I311
aI37
asba(iRide
Ride
p842
(dp843
g15
I22726
sg16
I21132
sg17
g832
sg19
I262
sg20
(lp844
I245
aI963
asbasba(iCar
Car
p845
(dp846
g7
I21641
sg8
(lp847
I515
aI598
asg10
I0
sg11
(lp848
(iRide
Ride
p849
(dp850
g15
I5710
sg16
I4166
sg17
(lp851
I361
aI143
asg19
I276
sg20
(lp852
I591
aI639
asba(iRide
Ride
p853
(dp854
g15
I14204
sg16
I12905
sg17
(lp855
I505
aI713
asg19
I170
sg20
(lp856
I357
aI20
asba(iRide
Ride
p857
(dp858
g15
I21894
sg16
I21159
sg17
g847
sg19
I47
sg20
(lp859
I649
aI946
asbasba(iCar
Car
p860
(dp861
g7
I21662
sg8
(lp862
I511
aI752
asg10
I0
sg11
(lp863
(iRide
Ride
p864
(dp865
g15
I5573
sg16
I5307
sg17
(lp866
I298
aI128
asg19
I193
sg20
(lp867
I123
aI156
asba(iRide
Ride
p868
(dp869
g15
I14196
sg16
I13263
sg17
(lp870
I343
aI532
asg19
I298
sg20
(lp871
I463
aI972
asba(iRide
Ride
p872
(dp873
g15
I22475
sg16
I21285
sg17
g862
sg19
I279
sg20
(lp874
I224
aI842
asbasba(iCar
Car
p875
(dp876
g7
I21691
sg8
(lp877
I569
aI278
asg10
I0
sg11
(lp878
(iRide
Ride
p879
(dp880
g15
I8091
sg16
I5193
sg17
(lp881
I605
aI565
asg19
I290
sg20
(lp882
I285
aI20
asba(iRide
Ride
p883
(dp884
g15
I13989
sg16
I13544
sg17
(lp885
I343
aI514
asg19
I109
sg20
(lp886
I253
aI282
asba(iRide
Ride
p887
(dp888
g15
I21845
sg16
I21342
sg17
g877
sg19
I186
sg20
(lp889
I291
aI207
asbasba(iCar
Car
p890
(dp891
g7
I21725
sg8
(lp892
I83
aI988
asg10
I0
sg11
(lp893
(iRide
Ride
p894
(dp895
g15
I6548
sg16
I5261
sg17
(lp896
I787
aI308
asg19
I227
sg20
(lp897
I316
aI274
asba(iRide
Ride
p898
(dp899
g15
I14226
sg16
I13359
sg17
(lp900
I236
aI754
asg19
I117
sg20
(lp901
I170
aI942
asba(iRide
Ride
p902
(dp903
g15
I22952
sg16
I20656
sg17
g892
sg19
I256
sg20
(lp904
I212
aI48
asbasba(iCar
Car
p905
(dp906
g7
I21900
sg8
(lp907
I181
aI765
asg10
I0
sg11
(lp908
(iRide
Ride
p909
(dp910
g15
I7490
sg16
I5697
sg17
(lp911
I420
aI751
asg19
I273
sg20
(lp912
I426
aI66
asba(iRide
Ride
p913
(dp914
g15
I14535
sg16
I13853
sg17
(lp915
I380
aI466
asg19
I22
sg20
(lp916
I593
aI508
asba(iRide
Ride
p917
(dp918
g15
I22247
sg16
I21645
sg17
g907
sg19
I229
sg20
(lp919
I405
aI734
asbasba(iCar
Car
p920
(dp921
g7
I22035
sg8
(lp922
I386
aI824
asg10
I0
sg11
(lp923
(iRide
Ride
p924
(dp925
g15
I7780
sg16
I6209
sg17
(lp926
I280
aI646
asg19
I18
sg20
(lp927
I108
aI973
asba(iRide
Ride
p928
(dp929
g15
I16078
sg16
I14518
sg17
(lp930
I445
aI767
asg19
I6
sg20
(lp931
I264
aI491
asba(iRide
Ride
p932
(dp933
g15
I22127
sg16
I21993
sg17
g922
sg19
I270
sg20
(lp934
I416
aI812
asbasba(iCar
Car
p935
(dp936
g7
I22040
sg8
(lp937
I546
aI379
asg10
I0
sg11
(lp938
(iRide
Ride
p939
(dp940
g15
I6337
sg16
I5017
sg17
(lp941
I463
aI561
asg19
I137
sg20
(lp942
I789
aI421
asba(iRide
Ride
p943
(dp944
g15
I14763
sg16
I13261
sg17
(lp945
I599
aI472
asg19
I177
sg20
(lp946
I234
aI186
asba(iRide
Ride
p947
(dp948
g15
I22505
sg16
I21476
sg17
g937
sg19
I97
sg20
(lp949
I378
aI775
asbasba(iCar
Car
p950
(dp951
g7
I22233
sg8
(lp952
I682
aI822
asg10
I0
sg11
(lp953
(iRide
Ride
p954
(dp955
g15
I7193
sg16
I6412
sg17
(lp956
I578
aI831
asg19
I187
sg20
(lp957
I605
aI616
asba(iRide
Ride
p958
(dp959
g15
I15842
sg16
I14323
sg17
(lp960
I477
aI757
asg19
I140
sg20
(lp961
I98
aI353
asba(iRide
Ride
p962
(dp963
g15
I22290
sg16
I22175
sg17
g952
sg19
I46
sg20
(lp964
I673
aI871
asbasba(iCar
Car
p965
(dp966
g7
I22330
sg8
(lp967
I432
aI878
asg10
I0
sg11
(lp968
(iRide
Ride
p969
(dp970
g15
I6124
sg16
I4743
sg17
(lp971
I191
aI859
asg19
I95
sg20
(lp972
I311
aI1
asba(iRide
Ride
p973
(dp974
g15
I15449
sg16
I13336
sg17
(lp975
I603
aI886
asg19
I160
sg20
(lp976
I426
aI438
asba(iRide
Ride
p977
(dp978
g15
I23406
sg16
I21551
sg17
g967
sg19
I233
sg20
(lp979
I324
aI207
asbasba(iCar
Car
p980
(dp981
g7
I22405
sg8
(lp982
I445
aI713
asg10
I0
sg11
(lp983
(iRide
Ride
p984
(dp985
g15
I6728
sg16
I6015
sg17
(lp986
I416
aI849
asg19
I107
sg20
(lp987
I239
aI321
asba(iRide
Ride
p988
(dp989
g15
I15685
sg16
I14589
sg17
(lp990
I326
aI286
asg19
I147
sg20
(lp991
I500
aI484
asba(iRide
Ride
p992
(dp993
g15
I22412
sg16
I21986
sg17
g982
sg19
I194
sg20
(lp994
I56
aI683
asbasba(iCar
Car
p995
(dp996
g7
I22429
sg8
(lp997
I98
aI375
asg10
I0
sg11
(lp998
(iRide
Ride
p999
(dp1000
g15
I6523
sg16
I5882
sg17
(lp1001
I448
aI236
asg19
I150
sg20
(lp1002
I610
aI690
asba(iRide
Ride
p1003
(dp1004
g15
I15080
sg16
I13935
sg17
(lp1005
I100
aI744
asg19
I23
sg20
(lp1006
I368
aI900
asba(iRide
Ride
p1007
(dp1008
g15
I22583
sg16
I21876
sg17
g997
sg19
I37
sg20
(lp1009
I265
aI761
asbasba(iCar
Car
p1010
(dp1011
g7
I22483
sg8
(lp1012
I606
aI828
asg10
I0
sg11
(lp1013
(iRide
Ride
p1014
(dp1015
g15
I7904
sg16
I5453
sg17
(lp1016
I588
aI972
asg19
I15
sg20
(lp1017
I190
aI614
asba(iRide
Ride
p1018
(dp1019
g15
I15396
sg16
I13658
sg17
(lp1020
I791
aI895
asg19
I73
sg20
(lp1021
I474
aI470
asba(iRide
Ride
p1022
(dp1023
g15
I23213
sg16
I21894
sg17
g1012
sg19
I240
sg20
(lp1024
I365
aI480
asbasba(iCar
Car
p1025
(dp1026
g7
I22503
sg8
(lp1027
I259
aI987
asg10
I0
sg11
(lp1028
(iRide
Ride
p1029
(dp1030
g15
I6847
sg16
I5589
sg17
(lp1031
I237
aI969
asg19
I218
sg20
(lp1032
I80
aI559
asba(iRide
Ride
p1033
(dp1034
g15
I14830
sg16
I13581
sg17
(lp1035
I161
aI802
asg19
I197
sg20
(lp1036
I687
aI641
asba(iRide
Ride
p1037
(dp1038
g15
I22785
sg16
I21754
sg17
g1027
sg19
I143
sg20
(lp1039
I587
aI566
asbasba(iCar
Car
p1040
(dp1041
g7
I22602
sg8
(lp1042
I384
aI785
asg10
I0
sg11
(lp1043
(iRide
Ride
p1044
(dp1045
g15
I6773
sg16
I5985
sg17
(lp1046
I471
aI874
asg19
I225
sg20
(lp1047
I305
aI985
asba(iRide
Ride
p1048
(dp1049
g15
I14236
sg16
I13790
sg17
(lp1050
I563
aI848
asg19
I195
sg20
(lp1051
I274
aI742
asba(iRide
Ride
p1052
(dp1053
g15
I23582
sg16
I21677
sg17
g1042
sg19
I272
sg20
(lp1054
I583
aI59
asbasba(iCar
Car
p1055
(dp1056
g7
I22623
sg8
(lp1057
I650
aI627
asg10
I0
sg11
(lp1058
(iRide
Ride
p1059
(dp1060
g15
I7059
sg16
I6113
sg17
(lp1061
I799
aI285
asg19
I105
sg20
(lp1062
I310
aI163
asba(iRide
Ride
p1063
(dp1064
g15
I15166
sg16
I14644
sg17
(lp1065
I373
aI771
asg19
I269
sg20
(lp1066
I618
aI558
asba(iRide
Ride
p1067
(dp1068
g15
I22989
sg16
I22069
sg17
g1057
sg19
I69
sg20
(lp1069
I700
aI123
asbasba(iCar
Car
p1070
(dp1071
g7
I22719
sg8
(lp1072
I300
aI833
asg10
I0
sg11
(lp1073
(iRide
Ride
p1074
(dp1075
g15
I6562
sg16
I6098
sg17
(lp1076
I663
aI278
asg19
I56
sg20
(lp1077
I558
aI342
asba(iRide
Ride
p1078
(dp1079
g15
I15642
sg16
I13832
sg17
(lp1080
I519
aI468
asg19
I237
sg20
(lp1081
I144
aI703
asba(iRide
Ride
p1082
(dp1083
g15
I23595
sg16
I21919
sg17
g1072
sg19
I1
sg20
(lp1084
I734
aI467
asbasba(iCar
Car
p1085
(dp1086
g7
I22865
sg8
(lp1087
I137
aI570
asg10
I0
sg11
(lp1088
(iRide
Ride
p1089
(dp1090
g15
I6969
sg16
I6281
sg17
(lp1091
I402
aI386
asg19
I171
sg20
(lp1092
I82
aI543
asba(iRide
Ride
p1093
(dp1094
g15
I15537
sg16
I14755
sg17
(lp1095
I797
aI305
asg19
I190
sg20
(lp1096
I442
aI623
asba(iRide
Ride
p1097
(dp1098
g15
I23150
sg16
I22183
sg17
g1087
sg19
I123
sg20
(lp1099
I296
aI47
asbasba(iCar
Car
p1100
(dp1101
g7
I22869
sg8
(lp1102
I99
aI956
asg10
I0
sg11
(lp1103
(iRide
Ride
p1104
(dp1105
g15
I6633
sg16
I6056
sg17
(lp1106
I655
aI886
asg19
I144
sg20
(lp1107
I393
aI624
asba(iRide
Ride
p1108
(dp1109
g15
I15327
sg16
I14104
sg17
(lp1110
I59
aI115
asg19
I114
sg20
(lp1111
I337
aI820
asba(iRide
Ride
p1112
(dp1113
g15
I22970
sg16
I22048
sg17
g1102
sg19
I135
sg20
(lp1114
I496
aI532
asbasba(iCar
Car
p1115
(dp1116
g7
I22904
sg8
(lp1117
I165
aI869
asg10
I0
sg11
(lp1118
(iRide
Ride
p1119
(dp1120
g15
I8121
sg16
I5978
sg17
(lp1121
I798
aI67
asg19
I285
sg20
(lp1122
I595
aI862
asba(iRide
Ride
p1123
(dp1124
g15
I16367
sg16
I15402
sg17
(lp1125
I519
aI12
asg19
I90
sg20
(lp1126
I667
aI211
asba(iRide
Ride
p1127
(dp1128
g15
I23597
sg16
I22383
sg17
g1117
sg19
I189
sg20
(lp1129
I223
aI406
asbasba(iCar
Car
p1130
(dp1131
g7
I22996
sg8
(lp1132
I698
aI330
asg10
I0
sg11
(lp1133
(iRide
Ride
p1134
(dp1135
g15
I7292
sg16
I6024
sg17
(lp1136
I94
aI215
asg19
I74
sg20
(lp1137
I328
aI636
asba(iRide
Ride
p1138
(dp1139
g15
I16679
sg16
I14356
sg17
(lp1140
I50
aI392
asg19
I48
sg20
(lp1141
I641
aI663
asba(iRide
Ride
p1142
(dp1143
g15
I23962
sg16
I22175
sg17
g1132
sg19
I94
sg20
(lp1144
I253
aI706
asbasba(iCar
Car
p1145
(dp1146
g7
I23096
sg8
(lp1147
I600
aI311
asg10
I0
sg11
(lp1148
(iRide
Ride
p1149
(dp1150
g15
I8435
sg16
I6967
sg17
(lp1151
I766
aI704
asg19
I200
sg20
(lp1152
I358
aI643
asba(iRide
Ride
p1153
(dp1154
g15
I16268
sg16
I15643
sg17
(lp1155
I274
aI198
asg19
I93
sg20
(lp1156
I290
aI20
asba(iRide
Ride
p1157
(dp1158
g15
I23278
sg16
I22519
sg17
g1147
sg19
I178
sg20
(lp1159
I532
aI820
asbasba(iCar
Car
p1160
(dp1161
g7
I23191
sg8
(lp1162
I5
aI42
asg10
I0
sg11
(lp1163
(iRide
Ride
p1164
(dp1165
g15
I7339
sg16
I6689
sg17
(lp1166
I796
aI628
asg19
I38
sg20
(lp1167
I636
aI557
asba(iRide
Ride
p1168
(dp1169
g15
I16592
sg16
I15115
sg17
(lp1170
I558
aI344
asg19
I42
sg20
(lp1171
I765
aI854
asba(iRide
Ride
p1172
(dp1173
g15
I24939
sg16
I22465
sg17
g1162
sg19
I208
sg20
(lp1174
I47
aI726
asbasba(iCar
Car
p1175
(dp1176
g7
I23211
sg8
(lp1177
I619
aI598
asg10
I0
sg11
(lp1178
(iRide
Ride
p1179
(dp1180
g15
I8214
sg16
I7076
sg17
(lp1181
I280
aI590
asg19
I57
sg20
(lp1182
I463
aI857
asba(iRide
Ride
p1183
(dp1184
g15
I16744
sg16
I15739
sg17
(lp1185
I254
aI27
asg19
I235
sg20
(lp1186
I506
aI215
asba(iRide
Ride
p1187
(dp1188
g15
I24007
sg16
I22833
sg17
g1177
sg19
I84
sg20
(lp1189
I310
aI667
asbasba(iCar
Car
p1190
(dp1191
g7
I23261
sg8
(lp1192
I183
aI153
asg10
I0
sg11
(lp1193
(iRide
Ride
p1194
(dp1195
g15
I7483
sg16
I6861
sg17
(lp1196
I198
aI643
asg19
I261
sg20
(lp1197
I115
aI955
asba(iRide
Ride
p1198
(dp1199
g15
I17709
sg16
I15482
sg17
(lp1200
I653
aI936
asg19
I101
sg20
(lp1201
I102
aI526
asba(iRide
Ride
p1202
(dp1203
g15
I23751
sg16
I22991
sg17
g1192
sg19
I278
sg20
(lp1204
I310
aI10
asbasba(iCar
Car
p1205
(dp1206
g7
I23400
sg8
(lp1207
I722
aI289
asg10
I0
sg11
(lp1208
(iRide
Ride
p1209
(dp1210
g15
I7001
sg16
I6638
sg17
(lp1211
I77
aI946
asg19
I263
sg20
(lp1212
I87
aI827
asba(iRide
Ride
p1213
(dp1214
g15
I16161
sg16
I15084
sg17
(lp1215
I476
aI849
asg19
I76
sg20
(lp1216
I525
aI464
asba(iRide
Ride
p1217
(dp1218
g15
I23566
sg16
I22325
sg17
g1207
sg19
I293
sg20
(lp1219
I264
aI906
asbasba(iCar
Car
p1220
(dp1221
g7
I23456
sg8
(lp1222
I88
aI53
asg10
I0
sg11
(lp1223
(iRide
Ride
p1224
(dp1225
g15
I8210
sg16
I6876
sg17
(lp1226
I480
aI624
asg19
I60
sg20
(lp1227
I468
aI106
asba(iRide
Ride
p1228
(dp1229
g15
I17315
sg16
I15583
sg17
(lp1230
I393
aI28
asg19
I25
sg20
(lp1231
I292
aI766
asba(iRide
Ride
p1232
(dp1233
g15
I23808
sg16
I22862
sg17
g1222
sg19
I153
sg20
(lp1234
I291
aI444
asbasba(iCar
Car
p1235
(dp1236
g7
I23516
sg8
(lp1237
I320
aI715
asg10
I0
sg11
(lp1238
(iRide
Ride
p1239
(dp1240
g15
I8933
sg16
I7570
sg17
(lp1241
I447
aI404
asg19
I129
sg20
(lp1242
I559
aI126
asba(iRide
Ride
p1243
(dp1244
g15
I16838
sg16
I16330
sg17
(lp1245
I398
aI239
asg19
I118
sg20
(lp1246
I497
aI303
asba(iRide
Ride
p1247
(dp1248
g15
I23518
sg16
I23246
sg17
g1237
sg19
I9
sg20
(lp1249
I460
aI585
asbasba(iCar
Car
p1250
(dp1251
g7
I23548
sg8
(lp1252
I416
aI309
asg10
I0
sg11
(lp1253
(iRide
Ride
p1254
(dp1255
g15
I7677
sg16
I7116
sg17
(lp1256
I14
aI948
asg19
I198
sg20
(lp1257
I165
aI591
asba(iRide
Ride
p1258
(dp1259
g15
I17940
sg16
I15963
sg17
(lp1260
I405
aI339
asg19
I131
sg20
(lp1261
I611
aI950
asba(iRide
Ride
p1262
(dp1263
g15
I23636
sg16
I23305
sg17
g1252
sg19
I52
sg20
(lp1264
I584
aI384
asbasba(iCar
Car
p1265
(dp1266
g7
I23578
sg8
(lp1267
I295
aI268
asg10
I0
sg11
(lp1268
(iRide
Ride
p1269
(dp1270
g15
I8651
sg16
I6743
sg17
(lp1271
I718
aI421
asg19
I63
sg20
(lp1272
I335
aI892
asba(iRide
Ride
p1273
(dp1274
g15
I16472
sg16
I15754
sg17
(lp1275
I214
aI702
asg19
I70
sg20
(lp1276
I495
aI283
asba(iRide
Ride
p1277
(dp1278
g15
I24477
sg16
I23203
sg17
g1267
sg19
I173
sg20
(lp1279
I104
aI452
asbasba(iCar
Car
p1280
(dp1281
g7
I23584
sg8
(lp1282
I467
aI258
asg10
I0
sg11
(lp1283
(iRide
Ride
p1284
(dp1285
g15
I7457
sg16
I7160
sg17
(lp1286
I376
aI848
asg19
I267
sg20
(lp1287
I484
aI871
asba(iRide
Ride
p1288
(dp1289
g15
I16941
sg16
I15534
sg17
(lp1290
I569
aI558
asg19
I283
sg20
(lp1291
I400
aI136
asba(iRide
Ride
p1292
(dp1293
g15
I23941
sg16
I22780
sg17
g1282
sg19
I49
sg20
(lp1294
I614
aI915
asbasba(iCar
Car
p1295
(dp1296
g7
I23679
sg8
(lp1297
I333
aI827
asg10
I0
sg11
(lp1298
(iRide
Ride
p1299
(dp1300
g15
I7577
sg16
I6792
sg17
(lp1301
I137
aI186
asg19
I125
sg20
(lp1302
I748
aI156
asba(iRide
Ride
p1303
(dp1304
g15
I19024
sg16
I15613
sg17
(lp1305
I101
aI985
asg19
I10
sg20
(lp1306
I732
aI600
asba(iRide
Ride
p1307
(dp1308
g15
I23929
sg16
I23266
sg17
g1297
sg19
I77
sg20
(lp1309
I462
aI543
asbasba(iCar
Car
p1310
(dp1311
g7
I23781
sg8
(lp1312
I306
aI903
asg10
I0
sg11
(lp1313
(iRide
Ride
p1314
(dp1315
g15
I9283
sg16
I7652
sg17
(lp1316
I723
aI872
asg19
I79
sg20
(lp1317
I474
aI621
asba(iRide
Ride
p1318
(dp1319
g15
I17811
sg16
I16361
sg17
(lp1320
I61
aI830
asg19
I287
sg20
(lp1321
I511
aI975
asba(iRide
Ride
p1322
(dp1323
g15
I24305
sg16
I23546
sg17
g1312
sg19
I211
sg20
(lp1324
I317
aI679
asbasba(iCar
Car
p1325
(dp1326
g7
I23987
sg8
(lp1327
I700
aI870
asg10
I0
sg11
(lp1328
(iRide
Ride
p1329
(dp1330
g15
I9888
sg16
I6841
sg17
(lp1331
I157
aI902
asg19
I156
sg20
(lp1332
I511
aI139
asba(iRide
Ride
p1333
(dp1334
g15
I17539
sg16
I16253
sg17
(lp1335
I51
aI812
asg19
I83
sg20
(lp1336
I753
aI836
asba(iRide
Ride
p1337
(dp1338
g15
I24299
sg16
I23612
sg17
g1327
sg19
I247
sg20
(lp1339
I424
aI969
asbasba(iCar
Car
p1340
(dp1341
g7
I24103
sg8
(lp1342
I584
aI714
asg10
I0
sg11
(lp1343
(iRide
Ride
p1344
(dp1345
g15
I9245
sg16
I8041
sg17
(lp1346
I494
aI196
asg19
I226
sg20
(lp1347
I498
aI934
asba(iRide
Ride
p1348
(dp1349
g15
I17089
sg16
I16592
sg17
(lp1350
I524
aI475
asg19
I81
sg20
(lp1351
I382
aI819
asba(iRide
Ride
p1352
(dp1353
g15
I24583
sg16
I23842
sg17
g1342
sg19
I169
sg20
(lp1354
I759
aI628
asbasba(iCar
Car
p1355
(dp1356
g7
I24138
sg8
(lp1357
I533
aI18
asg10
I0
sg11
(lp1358
(iRide
Ride
p1359
(dp1360
g15
I7802
sg16
I7285
sg17
(lp1361
I295
aI372
asg19
I44
sg20
(lp1362
I427
aI128
asba(iRide
Ride
p1363
(dp1364
g15
I17696
sg16
I15964
sg17
(lp1365
I166
aI751
asg19
I119
sg20
(lp1366
I588
aI216
asba(iRide
Ride
p1367
(dp1368
g15
I24893
sg16
I23346
sg17
g1357
sg19
I257
sg20
(lp1369
I787
aI556
asbasba(iCar
Car
p1370
(dp1371
g7
I24161
sg8
(lp1372
I30
aI370
asg10
I0
sg11
(lp1373
(iRide
Ride
p1374
(dp1375
g15
I9361
sg16
I7740
sg17
(lp1376
I348
aI523
asg19
I245
sg20
(lp1377
I727
aI896
asba(iRide
Ride
p1378
(dp1379
g15
I18092
sg16
I16395
sg17
(lp1380
I180
aI863
asg19
I138
sg20
(lp1381
I700
aI775
asba(iRide
Ride
p1382
(dp1383
g15
I24333
sg16
I23621
sg17
g1372
sg19
I149
sg20
(lp1384
I266
aI66
asbasba(iCar
Car
p1385
(dp1386
g7
I24368
sg8
(lp1387
I672
aI443
asg10
I0
sg11
(lp1388
(iRide
Ride
p1389
(dp1390
g15
I10756
sg16
I7150
sg17
(lp1391
I38
aI142
asg19
I213
sg20
(lp1392
I705
aI938
asba(iRide
Ride
p1393
(dp1394
g15
I17940
sg16
I16506
sg17
(lp1395
I151
aI805
asg19
I5
sg20
(lp1396
I237
aI432
asba(iRide
Ride
p1397
(dp1398
g15
I24999
sg16
I23564
sg17
g1387
sg19
I151
sg20
(lp1399
I335
aI910
asbasba(iCar
Car
p1400
(dp1401
g7
I24383
sg8
(lp1402
I462
aI286
asg10
I0
sg11
(lp1403
(iRide
Ride
p1404
(dp1405
g15
I10121
sg16
I8811
sg17
(lp1406
I588
aI238
asg19
I188
sg20
(lp1407
I590
aI695
asba(iRide
Ride
p1408
(dp1409
g15
I17416
sg16
I17202
sg17
(lp1410
I534
aI695
asg19
I291
sg20
(lp1411
I402
aI665
asba(iRide
Ride
p1412
(dp1413
g15
I24865
sg16
I24060
sg17
g1402
sg19
I274
sg20
(lp1414
I505
aI566
asbasba(iCar
Car
p1415
(dp1416
g7
I24441
sg8
(lp1417
I521
aI295
asg10
I0
sg11
(lp1418
(iRide
Ride
p1419
(dp1420
g15
I7835
sg16
I7102
sg17
(lp1421
I536
aI544
asg19
I19
sg20
(lp1422
I81
aI766
asba(iRide
Ride
p1423
(dp1424
g15
I18759
sg16
I16171
sg17
(lp1425
I232
aI841
asg19
I201
sg20
(lp1426
I348
aI7
asba(iRide
Ride
p1427
(dp1428
g15
I24851
sg16
I24005
sg17
g1417
sg19
I132
sg20
(lp1429
I127
aI253
asbasba(iCar
Car
p1430
(dp1431
g7
I24613
sg8
(lp1432
I322
aI292
asg10
I0
sg11
(lp1433
(iRide
Ride
p1434
(dp1435
g15
I8930
sg16
I8303
sg17
(lp1436
I645
aI290
asg19
I113
sg20
(lp1437
I81
aI273
asba(iRide
Ride
p1438
(dp1439
g15
I17773
sg16
I16900
sg17
(lp1440
I546
aI448
asg19
I139
sg20
(lp1441
I148
aI374
asba(iRide
Ride
p1442
(dp1443
g15
I24709
sg16
I24411
sg17
g1432
sg19
I175
sg20
(lp1444
I332
aI100
asbasba(iCar
Car
p1445
(dp1446
g7
I24621
sg8
(lp1447
I653
aI319
asg10
I0
sg11
(lp1448
(iRide
Ride
p1449
(dp1450
g15
I9727
sg16
I8592
sg17
(lp1451
I634
aI504
asg19
I91
sg20
(lp1452
I540
aI111
asba(iRide
Ride
p1453
(dp1454
g15
I18161
sg16
I17131
sg17
(lp1455
I131
aI145
asg19
I248
sg20
(lp1456
I6
aI455
asba(iRide
Ride
p1457
(dp1458
g15
I24925
sg16
I24444
sg17
g1447
sg19
I183
sg20
(lp1459
I528
aI267
asbasba(iCar
Car
p1460
(dp1461
g7
I24743
sg8
(lp1462
I425
aI839
asg10
I0
sg11
(lp1463
(iRide
Ride
p1464
(dp1465
g15
I10373
sg16
I8434
sg17
(lp1466
I178
aI821
asg19
I224
sg20
(lp1467
I229
aI110
asba(iRide
Ride
p1468
(dp1469
g15
I17676
sg16
I17142
sg17
(lp1470
I88
aI590
asg19
I45
sg20
(lp1471
I111
aI316
asba(iRide
Ride
p1472
(dp1473
g15
I24833
sg16
I24432
sg17
g1462
sg19
I165
sg20
(lp1474
I191
aI916
asbasba(iCar
Car
p1475
(dp1476
g7
I24885
sg8
(lp1477
I21
aI810
asg10
I0
sg11
(lp1478
(iRide
Ride
p1479
(dp1480
g15
I9035
sg16
I8980
sg17
(lp1481
I524
aI912
asg19
I53
sg20
(lp1482
I541
aI897
asba(iRide
Ride
p1483
(dp1484
g15
I17823
sg16
I16913
sg17
(lp1485
I220
aI317
asg19
I124
sg20
(lp1486
I81
aI653
asba(iRide
Ride
p1487
(dp1488
g15
I24959
sg16
I24428
sg17
g1477
sg19
I2
sg20
(lp1489
I473
aI815
asbasbasS'steps'
p1490
I25000
sS'rides_no_assinged'
p1491
(lp1492
(iRide
Ride
p1493
(dp1494
g15
I1451
sg16
I462
sg17
(lp1495
I693
aI143
asg19
I65
sg20
(lp1496
I432
aI467
asba(iRide
Ride
p1497
(dp1498
g15
I1239
sg16
I288
sg17
(lp1499
I588
aI906
asg19
I36
sg20
(lp1500
I623
aI425
asba(iRide
Ride
p1501
(dp1502
g15
I656
sg16
I281
sg17
(lp1503
I314
aI445
asg19
I234
sg20
(lp1504
I662
aI421
asba(iRide
Ride
p1505
(dp1506
g15
I712
sg16
I186
sg17
(lp1507
I201
aI494
asg19
I221
sg20
(lp1508
I518
aI656
asba(iRide
Ride
p1509
(dp1510
g15
I2463
sg16
I406
sg17
(lp1511
I25
aI81
asg19
I33
sg20
(lp1512
I434
aI885
asba(iRide
Ride
p1513
(dp1514
g15
I1603
sg16
I450
sg17
(lp1515
I777
aI613
asg19
I179
sg20
(lp1516
I624
aI916
asbasb.